target datalayout = "e-m:e-p270:32:32-p271:32:32-p272:64:64-i64:64-i128:128-f80:128-n8:16:32:64-S128"
target triple = "x86_64-pc-linux-gnu"

@proto_megaco = internal global i32 0, align 4
@megaco_text_handle = internal global ptr null, align 8
@.str.189 = private unnamed_addr constant [4 x i8] c"sdp\00", align 1
@sdp_handle = internal global ptr null, align 8
@.str.190 = private unnamed_addr constant [7 x i8] c"h245dg\00", align 1
@h245_handle = internal global ptr null, align 8
@.str.191 = private unnamed_addr constant [5 x i8] c"h248\00", align 1
@h248_handle = internal global ptr null, align 8
@.str.192 = private unnamed_addr constant [9 x i8] c"h248_otp\00", align 1
@h248_otp_handle = internal global ptr null, align 8
@.str.193 = private unnamed_addr constant [5 x i8] c"data\00", align 1
@data_handle = internal global ptr null, align 8
@.str.194 = private unnamed_addr constant [9 x i8] c"tcp.port\00", align 1
@.str.195 = private unnamed_addr constant [9 x i8] c"udp.port\00", align 1
@.str.196 = private unnamed_addr constant [10 x i8] c"sctp.port\00", align 1
@.str.197 = private unnamed_addr constant [9 x i8] c"sctp.ppi\00", align 1
@.str.198 = private unnamed_addr constant [12 x i8] c"OSI layer 7\00", align 1
@exported_pdu_tap = internal global i32 -1, align 4
@.str.199 = private unnamed_addr constant [4 x i8] c"sip\00", align 1
@.str.200 = private unnamed_addr constant [23 x i8] c"hide_generated_call_id\00", align 1
@sip_hide_generated_call_ids = internal global ptr null, align 8

; Function Attrs: null_pointer_is_valid sspstrong uwtable
define hidden void @proto_reg_handoff_megaco() #0 {
  %1 = alloca ptr, align 8
  call void @llvm.lifetime.start.p0(i64 8, ptr %1) #12
  %2 = load i32, ptr @proto_megaco, align 4
  %3 = call ptr @find_dissector_add_dependency(ptr noundef @.str.189, i32 noundef %2)
  store ptr %3, ptr @sdp_handle, align 8
  %4 = load i32, ptr @proto_megaco, align 4
  %5 = call ptr @find_dissector_add_dependency(ptr noundef @.str.190, i32 noundef %4)
  store ptr %5, ptr @h245_handle, align 8
  %6 = load i32, ptr @proto_megaco, align 4
  %7 = call ptr @find_dissector_add_dependency(ptr noundef @.str.191, i32 noundef %6)
  store ptr %7, ptr @h248_handle, align 8
  %8 = load i32, ptr @proto_megaco, align 4
  %9 = call ptr @find_dissector_add_dependency(ptr noundef @.str.192, i32 noundef %8)
  store ptr %9, ptr @h248_otp_handle, align 8
  %10 = call ptr @find_dissector(ptr noundef @.str.193)
  store ptr %10, ptr @data_handle, align 8
  %11 = load i32, ptr @proto_megaco, align 4
  %12 = call ptr @create_dissector_handle(ptr noundef @dissect_megaco_text_tcp, i32 noundef %11)
  store ptr %12, ptr %1, align 8
  %13 = load ptr, ptr %1, align 8
  call void @dissector_add_uint_with_preference(ptr noundef @.str.194, i32 noundef 2944, ptr noundef %13)
  %14 = load ptr, ptr @megaco_text_handle, align 8
  call void @dissector_add_uint_with_preference(ptr noundef @.str.195, i32 noundef 2944, ptr noundef %14)
  %15 = load ptr, ptr @megaco_text_handle, align 8
  call void @dissector_add_uint_with_preference(ptr noundef @.str.196, i32 noundef 2944, ptr noundef %15)
  %16 = load ptr, ptr @megaco_text_handle, align 8
  call void @dissector_add_uint(ptr noundef @.str.197, i32 noundef 7, ptr noundef %16)
  %17 = call i32 @find_tap_id(ptr noundef @.str.198)
  store i32 %17, ptr @exported_pdu_tap, align 4
  %18 = call ptr @prefs_find_module(ptr noundef @.str.199)
  %19 = call ptr @prefs_find_preference(ptr noundef %18, ptr noundef @.str.200)
  store ptr %19, ptr @sip_hide_generated_call_ids, align 8
  call void @llvm.lifetime.end.p0(i64 8, ptr %1) #12
  ret void
}