; Function Attrs: null_pointer_is_valid sspstrong uwtable
define hidden void @proto_reg_handoff_megaco() local_unnamed_addr #0 {
  %1 = load i32, ptr @proto_megaco, align 4
  %2 = tail call ptr @find_dissector_add_dependency(ptr noundef nonnull @.str.189, i32 noundef %1)
  store ptr %2, ptr @sdp_handle, align 8
  %3 = load i32, ptr @proto_megaco, align 4
  %4 = tail call ptr @find_dissector_add_dependency(ptr noundef nonnull @.str.190, i32 noundef %3)
  store ptr %4, ptr @h245_handle, align 8
  %5 = load i32, ptr @proto_megaco, align 4
  %6 = tail call ptr @find_dissector_add_dependency(ptr noundef nonnull @.str.191, i32 noundef %5)
  store ptr %6, ptr @h248_handle, align 8
  %7 = load i32, ptr @proto_megaco, align 4
  %8 = tail call ptr @find_dissector_add_dependency(ptr noundef nonnull @.str.192, i32 noundef %7)
  store ptr %8, ptr @h248_otp_handle, align 8
  %9 = tail call ptr @find_dissector(ptr noundef nonnull @.str.193)
  store ptr %9, ptr @data_handle, align 8
  %10 = load i32, ptr @proto_megaco, align 4
  %11 = tail call ptr @create_dissector_handle(ptr noundef nonnull @dissect_megaco_text_tcp, i32 noundef %10)
  tail call void @dissector_add_uint_with_preference(ptr noundef nonnull @.str.194, i32 noundef 2944, ptr noundef %11)
  %12 = load ptr, ptr @megaco_text_handle, align 8
  tail call void @dissector_add_uint_with_preference(ptr noundef nonnull @.str.195, i32 noundef 2944, ptr noundef %12)
  %13 = load ptr, ptr @megaco_text_handle, align 8
  tail call void @dissector_add_uint_with_preference(ptr noundef nonnull @.str.196, i32 noundef 2944, ptr noundef %13)
  %14 = load ptr, ptr @megaco_text_handle, align 8
  tail call void @dissector_add_uint(ptr noundef nonnull @.str.197, i32 noundef 7, ptr noundef %14)
  %15 = tail call i32 @find_tap_id(ptr noundef nonnull @.str.198)
  store i32 %15, ptr @exported_pdu_tap, align 4
  %16 = tail call ptr @prefs_find_module(ptr noundef nonnull @.str.199)
  %17 = tail call ptr @prefs_find_preference(ptr noundef %16, ptr noundef nonnull @.str.200)
  store ptr %17, ptr @sip_hide_generated_call_ids, align 8
  ret void
}